(ibrain
FeedForwardBrain
p0
(dp1
S'num_layer'
p2
I2
sS'out'
p3
(lp4
(lp5
cnumpy.core.multiarray
scalar
p6
(cnumpy
dtype
p7
(S'f8'
p8
I0
I1
tp9
Rp10
(I3
S'<'
p11
NNNI-1
I-1
I0
tp12
bS'@\xe9G\xca\xf4\xce\xa5\xbf'
p13
tp14
Rp15
ag6
(g10
S'q\xd0`:A}\x14='
p16
tp17
Rp18
aa(lp19
F0.5045975918450601
aasS'func'
p20
(lp21
cbrain
sigmoid
p22
ag22
asS'weight'
p23
(lp24
(lp25
(lp26
F-0.5618212221983133
aF-0.04954696204410858
aF-0.005539650799267262
aaasS'layer_size'
p27
(lp28
I2
aI1
asb.