(ibrain
FeedForwardBrain
p0
(dp1
S'num_layer'
p2
I2
sS'out'
p3
(lp4
(lp5
cnumpy.core.multiarray
scalar
p6
(cnumpy
dtype
p7
(S'f8'
p8
I0
I1
tp9
Rp10
(I3
S'<'
p11
NNNI-1
I-1
I0
tp12
bS'\xc0\xd5\x9d\xa2*\xa0\xae?'
p13
tp14
Rp15
ag6
(g10
S'tRZ+\x84+\x01\xbd'
p16
tp17
Rp18
aa(lp19
F0.49353978290569683
aasS'func'
p20
(lp21
cbrain
sigmoid
p22
ag22
asS'weight'
p23
(lp24
(lp25
(lp26
F-0.47054634908520665
aF-0.12342449815759937
aF0.0023037639712009117
aaasS'layer_size'
p27
(lp28
I2
aI1
asb.