(ifeedforwardbrain
FeedForwardBrain
p0
(dp1
S'num_layer'
p2
I3
sS'out'
p3
(lp4
(lp5
cnumpy.core.multiarray
scalar
p6
(cnumpy
dtype
p7
(S'f8'
p8
I0
I1
tp9
Rp10
(I3
S'<'
p11
NNNI-1
I-1
I0
tp12
bS'"[\xf3]\xd1\xac\x0e@'
p13
tp14
Rp15
ag6
(g10
S'\x87;*W\xc8;\xa8?'
p16
tp17
Rp18
ag6
(g10
S'\x07}\xe7\xae\x8a\xf5\x04@'
p19
tp20
Rp21
ag6
(g10
S'@M\x1a\x84h\xca\xfd\xbf'
p22
tp23
Rp24
aa(lp25
F0.42032477740450025
aF0.19814431058581236
aF0.31588623216416051
aF0.7220769192053863
aa(lp26
F0.54333054602570696
aF0.56026466892092441
aasS'weight'
p27
(lp28
(lp29
a(lp30
(lp31
F0.23978827960453508
aF-0.17036496035303572
aF-0.48681406269967631
aF-0.10021112969110235
aF-0.14400075771974907
aa(lp32
F-0.37159276397954899
aF-0.18447326474073411
aF0.098593281600462213
aF0.38146793715826033
aF0.48758491431153506
aa(lp33
F-0.46386159450197739
aF-0.28297515585894983
aF0.26169325307632774
aF-0.37280358560707483
aF-0.36046266185968745
aa(lp34
F0.16297541732827947
aF-0.015407740569319262
aF0.18557944118064251
aF0.15881068459937753
aF0.14010007173465844
aaa(lp35
(lp36
F0.2941583402471738
aF0.34140777561855773
aF0.44467165968043842
aF0.0024898883250291659
aF-0.15979555185545857
aa(lp37
F-0.0025609206827112985
aF-0.43238037203775748
aF-0.24776108492581661
aF0.405895117469111
aF0.11416321829527754
aaasS'func'
p38
(lp39
Nacfeedforwardbrain
sigmoid
p40
ag40
ag40
asS'layer_size'
p41
(lp42
I4
aI4
aI2
asb.