(ifeedforwardbrain
FeedForwardBrain
p0
(dp1
S'num_layer'
p2
I3
sS'out'
p3
(lp4
(lp5
cnumpy.core.multiarray
scalar
p6
(cnumpy
dtype
p7
(S'f8'
p8
I0
I1
tp9
Rp10
(I3
S'<'
p11
NNNI-1
I-1
I0
tp12
bS'@\xef\x8f:s+\xae?'
p13
tp14
Rp15
ag6
(g10
S'\xf6\xe4\xb7\x94\xee\xc08?'
p16
tp17
Rp18
ag6
(g10
S'\x8f\x00\xd6K\xe5\xa8\xd3\xbf'
p19
tp20
Rp21
ag6
(g10
S'F\xd3Y\x9e\xa3\x1a\xa5?'
p22
tp23
Rp24
aa(lp25
F0.40498825256578025
aF0.5351313387854464
aF0.48726349187771345
aF0.43525683303446894
aa(lp26
F0.4916736006515439
aF0.49296814251299226
aasS'weight'
p27
(lp28
(lp29
a(lp30
(lp31
F0.30200436678436804
aF0.2912470483918733
aF0.28815938602217006
aF-0.2314434974139531
aF-0.30457110890309314
aa(lp32
F-0.3859712921405045
aF0.15737690494167444
aF0.06569178432031153
aF0.44944707068919354
aF0.1650950431369057
aa(lp33
F0.4641782478348352
aF0.4584520923289277
aF-0.1093086523654081
aF0.28731024307639574
aF-0.12390246141419103
aa(lp34
F-0.3920297669788412
aF-0.46264572874817855
aF-0.17279830234804794
aF0.29300996157008685
aF-0.30231791938994446
aaa(lp35
(lp36
F-0.16509035814137762
aF-0.0316910933115081
aF-0.3302434253248401
aF-0.358968666413091
aF0.3676690057175772
aa(lp37
F0.18766445592748526
aF-0.45044926267837093
aF0.4012822040553128
aF-0.3105821760462474
aF0.07657117869210395
aaasS'func'
p38
(lp39
Nacfeedforwardbrain
sigmoid
p40
ag40
asS'layer_size'
p41
(lp42
I4
aI4
aI2
asb.