(ibrain
FeedForwardBrain
p0
(dp1
S'num_layer'
p2
I3
sS'out'
p3
(lp4
(lp5
F1.0
aF1.0
aa(lp6
F1.0
aF5.050683930386552e-36
aa(lp7
F0.0
aasS'func'
p8
(lp9
cbrain
sigmoid
p10
ag10
ag10
asS'weight'
p11
(lp12
(lp13
(lp14
F90.74466350055428
aF38.22361094417224
aF-30.669892804180154
aa(lp15
F-97.29129407480397
aF-195.9134007553971
aF211.9311551482924
aaa(lp16
(lp17
F70.14261623073743
aF336.1639090765238
aF-360.3658054907293
aaasS'layer_size'
p18
(lp19
I2
aI2
aI1
asb.